; Function Attrs: mustprogress uwtable
define hidden void @_ZN11opencv_onnx26TensorShapeProto_Dimension5ClearEv(ptr noundef nonnull align 8 dereferenceable(48) %0) unnamed_addr #3 align 2 personality ptr @__gxx_personality_v0 {
  %2 = getelementptr inbounds nuw i8, ptr %0, i64 16
  %3 = load i32, ptr %2, align 8, !tbaa !51
  %4 = and i32 %3, 1
  %.not = icmp eq i32 %4, 0
  br i1 %.not, label %13, label %5

5:                                                ; preds = %1
  %6 = getelementptr inbounds nuw i8, ptr %0, i64 24
  %7 = load ptr, ptr %6, align 8, !tbaa !41
  %8 = ptrtoint ptr %7 to i64
  %9 = and i64 %8, -2
  %10 = inttoptr i64 %9 to ptr
  %11 = getelementptr inbounds nuw i8, ptr %10, i64 8
  store i64 0, ptr %11, align 8, !tbaa !53
  %12 = load ptr, ptr %10, align 8, !tbaa !57
  store i8 0, ptr %12, align 1, !tbaa !46
  br label %13

13:                                               ; preds = %5, %1
  %14 = getelementptr inbounds nuw i8, ptr %0, i64 40
  %15 = load i32, ptr %14, align 8, !tbaa !51
  %cond.i = icmp eq i32 %15, 2
  br i1 %cond.i, label %16, label %_ZN11opencv_onnx26TensorShapeProto_Dimension11clear_valueEv.exit

16:                                               ; preds = %13
  %17 = getelementptr inbounds nuw i8, ptr %0, i64 32
  %18 = getelementptr inbounds nuw i8, ptr %0, i64 8
  %19 = load i64, ptr %18, align 8, !tbaa !33
  %20 = and i64 %19, 1
  %.not.i.i = icmp eq i64 %20, 0
  %21 = and i64 %19, -4
  %22 = inttoptr i64 %21 to ptr
  br i1 %.not.i.i, label %_ZNK6google8protobuf11MessageLite21GetArenaForAllocationEv.exit.i, label %23, !prof !43

23:                                               ; preds = %16
  %24 = load ptr, ptr %22, align 8, !tbaa !44
  br label %_ZNK6google8protobuf11MessageLite21GetArenaForAllocationEv.exit.i

_ZNK6google8protobuf11MessageLite21GetArenaForAllocationEv.exit.i: ; preds = %23, %16
  %.0.i.i.i = phi ptr [ %24, %23 ], [ %22, %16 ]
  tail call void @_ZN6google8protobuf8internal14ArenaStringPtr7DestroyENS2_12EmptyDefaultEPNS0_5ArenaE(ptr noundef nonnull align 8 dereferenceable(8) %17, ptr noundef %.0.i.i.i)
  br label %_ZN11opencv_onnx26TensorShapeProto_Dimension11clear_valueEv.exit

_ZN11opencv_onnx26TensorShapeProto_Dimension11clear_valueEv.exit: ; preds = %13, %_ZNK6google8protobuf11MessageLite21GetArenaForAllocationEv.exit.i
  store i32 0, ptr %14, align 8, !tbaa !51
  store i32 0, ptr %2, align 8
  %25 = getelementptr inbounds nuw i8, ptr %0, i64 8
  %26 = load i64, ptr %25, align 8, !tbaa !33
  %27 = and i64 %26, 1
  %.not1 = icmp eq i64 %27, 0
  br i1 %.not1, label %_ZN6google8protobuf8internal16InternalMetadata5ClearINS0_15UnknownFieldSetEEEvv.exit, label %28

28:                                               ; preds = %_ZN11opencv_onnx26TensorShapeProto_Dimension11clear_valueEv.exit
  tail call void @_ZN6google8protobuf8internal16InternalMetadata7DoClearINS0_15UnknownFieldSetEEEvv(ptr noundef nonnull align 8 dereferenceable(8) %25)
  br label %_ZN6google8protobuf8internal16InternalMetadata5ClearINS0_15UnknownFieldSetEEEvv.exit

_ZN6google8protobuf8internal16InternalMetadata5ClearINS0_15UnknownFieldSetEEEvv.exit: ; preds = %_ZN11opencv_onnx26TensorShapeProto_Dimension11clear_valueEv.exit, %28
  ret void
}